target datalayout = "e-m:e-p270:32:32-p271:32:32-p272:64:64-i64:64-i128:128-f80:128-n8:16:32:64-S128"
target triple = "x86_64-pc-linux-gnu"

%"struct.std::_Vector_base" = type { %"struct.std::_Vector_base<aiMaterial *, std::allocator<aiMaterial *>>::_Vector_impl" }
%"struct.std::_Vector_base<aiMaterial *, std::allocator<aiMaterial *>>::_Vector_impl" = type { %"struct.std::_Vector_base<aiMaterial *, std::allocator<aiMaterial *>>::_Vector_impl_data" }
%"struct.std::_Vector_base<aiMaterial *, std::allocator<aiMaterial *>>::_Vector_impl_data" = type { ptr, ptr, ptr }
%struct.aiString = type { i32, [1024 x i8] }
%struct.aiScene = type { i32, ptr, i32, ptr, i32, ptr, i32, ptr, i32, ptr, i32, ptr, i32, ptr, ptr, %struct.aiString, i32, ptr, ptr }

; Function Attrs: mustprogress nounwind uwtable
define linkonce_odr noundef nonnull align 8 dereferenceable(8) ptr @_ZNSt6vectorIP10aiMaterialSaIS1_EEixEm(ptr noundef nonnull align 8 dereferenceable(24) %0, i64 noundef %1) #2 comdat align 2 {
  %3 = alloca ptr, align 8
  %4 = alloca i64, align 8
  store ptr %0, ptr %3, align 8
  store i64 %1, ptr %4, align 8
  %5 = load ptr, ptr %3, align 8
  %6 = getelementptr inbounds nuw %"struct.std::_Vector_base", ptr %5, i32 0, i32 0
  %7 = getelementptr inbounds nuw %"struct.std::_Vector_base<aiMaterial *, std::allocator<aiMaterial *>>::_Vector_impl_data", ptr %6, i32 0, i32 0
  %8 = load ptr, ptr %7, align 8
  %9 = load i64, ptr %4, align 8
  %10 = getelementptr inbounds nuw ptr, ptr %8, i64 %9
  ret ptr %10
}

; Function Attrs: mustprogress nounwind uwtable
define linkonce_odr noundef i64 @_ZNKSt6vectorIP10aiMaterialSaIS1_EE4sizeEv(ptr noundef nonnull align 8 dereferenceable(24) %0) #2 comdat align 2 {
  %2 = alloca ptr, align 8
  store ptr %0, ptr %2, align 8
  %3 = load ptr, ptr %2, align 8
  %4 = getelementptr inbounds nuw %"struct.std::_Vector_base", ptr %3, i32 0, i32 0
  %5 = getelementptr inbounds nuw %"struct.std::_Vector_base<aiMaterial *, std::allocator<aiMaterial *>>::_Vector_impl_data", ptr %4, i32 0, i32 1
  %6 = load ptr, ptr %5, align 8
  %7 = getelementptr inbounds nuw %"struct.std::_Vector_base", ptr %3, i32 0, i32 0
  %8 = getelementptr inbounds nuw %"struct.std::_Vector_base<aiMaterial *, std::allocator<aiMaterial *>>::_Vector_impl_data", ptr %7, i32 0, i32 0
  %9 = load ptr, ptr %8, align 8
  %10 = ptrtoint ptr %6 to i64
  %11 = ptrtoint ptr %9 to i64
  %12 = sub i64 %10, %11
  %13 = sdiv exact i64 %12, 8
  ret i64 %13
}

; Function Attrs: mustprogress uwtable
define hidden void @_ZN6Assimp4Ogre12OgreImporter15AssignMaterialsEP7aiSceneRSt6vectorIP10aiMaterialSaIS6_EE(ptr noundef nonnull align 8 dereferenceable(160) %0, ptr noundef %1, ptr noundef nonnull align 8 dereferenceable(24) %2) #3 align 2 {
  %4 = alloca ptr, align 8
  %5 = alloca ptr, align 8
  %6 = alloca ptr, align 8
  %7 = alloca i64, align 8
  store ptr %0, ptr %4, align 8
  store ptr %1, ptr %5, align 8
  store ptr %2, ptr %6, align 8
  %8 = load ptr, ptr %6, align 8
  %9 = call noundef i64 @_ZNKSt6vectorIP10aiMaterialSaIS1_EE4sizeEv(ptr noundef nonnull align 8 dereferenceable(24) %8) #4
  %10 = trunc i64 %9 to i32
  %11 = load ptr, ptr %5, align 8
  %12 = getelementptr inbounds nuw %struct.aiScene, ptr %11, i32 0, i32 4
  store i32 %10, ptr %12, align 8
  %13 = load ptr, ptr %5, align 8
  %14 = getelementptr inbounds nuw %struct.aiScene, ptr %13, i32 0, i32 4
  %15 = load i32, ptr %14, align 8
  %16 = icmp ugt i32 %15, 0
  br i1 %16, label %17, label %51

17:                                               ; preds = %3
  %18 = load ptr, ptr %5, align 8
  %19 = getelementptr inbounds nuw %struct.aiScene, ptr %18, i32 0, i32 4
  %20 = load i32, ptr %19, align 8
  %21 = zext i32 %20 to i64
  %22 = call { i64, i1 } @llvm.umul.with.overflow.i64(i64 %21, i64 8)
  %23 = extractvalue { i64, i1 } %22, 1
  %24 = extractvalue { i64, i1 } %22, 0
  %25 = select i1 %23, i64 -1, i64 %24
  %26 = call noalias noundef nonnull ptr @_Znam(i64 noundef %25) #21
  %27 = load ptr, ptr %5, align 8
  %28 = getelementptr inbounds nuw %struct.aiScene, ptr %27, i32 0, i32 5
  store ptr %26, ptr %28, align 8
  call void @llvm.lifetime.start.p0(i64 8, ptr %7) #4
  store i64 0, ptr %7, align 8
  br label %29

29:                                               ; preds = %47, %17
  %30 = load i64, ptr %7, align 8
  %31 = load ptr, ptr %5, align 8
  %32 = getelementptr inbounds nuw %struct.aiScene, ptr %31, i32 0, i32 4
  %33 = load i32, ptr %32, align 8
  %34 = zext i32 %33 to i64
  %35 = icmp ult i64 %30, %34
  br i1 %35, label %37, label %36

36:                                               ; preds = %29
  call void @llvm.lifetime.end.p0(i64 8, ptr %7) #4
  br label %50

37:                                               ; preds = %29
  %38 = load ptr, ptr %6, align 8
  %39 = load i64, ptr %7, align 8
  %40 = call noundef nonnull align 8 dereferenceable(8) ptr @_ZNSt6vectorIP10aiMaterialSaIS1_EEixEm(ptr noundef nonnull align 8 dereferenceable(24) %38, i64 noundef %39) #4
  %41 = load ptr, ptr %40, align 8
  %42 = load ptr, ptr %5, align 8
  %43 = getelementptr inbounds nuw %struct.aiScene, ptr %42, i32 0, i32 5
  %44 = load ptr, ptr %43, align 8
  %45 = load i64, ptr %7, align 8
  %46 = getelementptr inbounds nuw ptr, ptr %44, i64 %45
  store ptr %41, ptr %46, align 8
  br label %47

47:                                               ; preds = %37
  %48 = load i64, ptr %7, align 8
  %49 = add i64 %48, 1
  store i64 %49, ptr %7, align 8
  br label %29, !llvm.loop !8

50:                                               ; preds = %36
  br label %51

51:                                               ; preds = %50, %3
  ret void
}