; Function Attrs: mustprogress uwtable
define hidden void @_ZN6Assimp4Ogre12OgreImporter15AssignMaterialsEP7aiSceneRSt6vectorIP10aiMaterialSaIS6_EE(ptr noundef nonnull readnone align 8 captures(none) dereferenceable(160) %0, ptr noundef captures(none) initializes((32, 36)) %1, ptr noundef nonnull readonly align 8 captures(none) dereferenceable(24) %2) local_unnamed_addr #3 align 2 {
  %4 = getelementptr inbounds nuw i8, ptr %2, i64 8
  %5 = load ptr, ptr %4, align 8
  %6 = load ptr, ptr %2, align 8
  %7 = ptrtoint ptr %5 to i64
  %8 = ptrtoint ptr %6 to i64
  %9 = sub i64 %7, %8
  %10 = lshr exact i64 %9, 3
  %11 = trunc i64 %10 to i32
  %12 = getelementptr inbounds nuw i8, ptr %1, i64 32
  store i32 %11, ptr %12, align 8
  %.not = icmp eq i32 %11, 0
  br i1 %.not, label %.loopexit, label %.lr.ph.preheader

.lr.ph.preheader:                                 ; preds = %3
  %13 = and i64 %9, 34359738360
  %14 = tail call noalias noundef nonnull ptr @_Znam(i64 noundef %13) #24
  %15 = getelementptr inbounds nuw i8, ptr %1, i64 40
  store ptr %14, ptr %15, align 8
  br label %.lr.ph

.lr.ph:                                           ; preds = %.lr.ph.preheader, %.lr.ph
  %.012 = phi i64 [ %21, %.lr.ph ], [ 0, %.lr.ph.preheader ]
  %16 = load ptr, ptr %2, align 8
  %17 = getelementptr inbounds nuw ptr, ptr %16, i64 %.012
  %18 = load ptr, ptr %17, align 8
  %19 = load ptr, ptr %15, align 8
  %20 = getelementptr inbounds nuw ptr, ptr %19, i64 %.012
  store ptr %18, ptr %20, align 8
  %21 = add nuw nsw i64 %.012, 1
  %22 = load i32, ptr %12, align 8
  %23 = zext i32 %22 to i64
  %24 = icmp samesign ult i64 %21, %23
  br i1 %24, label %.lr.ph, label %.loopexit, !llvm.loop !3

.loopexit:                                        ; preds = %.lr.ph, %3
  ret void
}